target datalayout = "e-m:e-p270:32:32-p271:32:32-p272:64:64-i64:64-i128:128-f80:128-n8:16:32:64-S128"
target triple = "x86_64-pc-linux-gnu"

%struct.strbuf = type { i64, i64, ptr }
%struct.object_id = type { [32 x i8], i32 }
%struct.diff_queue_struct = type { ptr, i32, i32 }
%struct.stat = type { i64, i64, i64, i32, i32, i32, i32, i64, i64, i64, i64, %struct.timespec, %struct.timespec, %struct.timespec, [3 x i64] }
%struct.timespec = type { i64, i64 }
%struct.diff_filepair = type { ptr, ptr, i16, i8, i8 }
%struct.diff_filespec = type { %struct.object_id, ptr, ptr, ptr, i64, i32, i32, i16, i16, ptr }

; Function Attrs: inlinehint nounwind uwtable
define internal i64 @strbuf_avail(ptr noundef %0) #5 {
  %2 = alloca ptr, align 8
  store ptr %0, ptr %2, align 8, !tbaa !127
  %3 = load ptr, ptr %2, align 8, !tbaa !127
  %4 = getelementptr inbounds nuw %struct.strbuf, ptr %3, i32 0, i32 0
  %5 = load i64, ptr %4, align 8, !tbaa !213
  %6 = icmp ne i64 %5, 0
  br i1 %6, label %7, label %16

7:                                                ; preds = %1
  %8 = load ptr, ptr %2, align 8, !tbaa !127
  %9 = getelementptr inbounds nuw %struct.strbuf, ptr %8, i32 0, i32 0
  %10 = load i64, ptr %9, align 8, !tbaa !213
  %11 = load ptr, ptr %2, align 8, !tbaa !127
  %12 = getelementptr inbounds nuw %struct.strbuf, ptr %11, i32 0, i32 1
  %13 = load i64, ptr %12, align 8, !tbaa !114
  %14 = sub i64 %10, %13
  %15 = sub i64 %14, 1
  br label %17

16:                                               ; preds = %1
  br label %17

17:                                               ; preds = %16, %7
  %18 = phi i64 [ %15, %7 ], [ 0, %16 ]
  ret i64 %18
}

; Function Attrs: inlinehint nounwind uwtable
define internal void @strbuf_addch(ptr noundef %0, i32 noundef %1) #5 {
  %3 = alloca ptr, align 8
  %4 = alloca i32, align 4
  store ptr %0, ptr %3, align 8, !tbaa !127
  store i32 %1, ptr %4, align 4, !tbaa !4
  %5 = load ptr, ptr %3, align 8, !tbaa !127
  %6 = call i64 @strbuf_avail(ptr noundef %5)
  %7 = icmp ne i64 %6, 0
  br i1 %7, label %10, label %8

8:                                                ; preds = %2
  %9 = load ptr, ptr %3, align 8, !tbaa !127
  call void @strbuf_grow(ptr noundef %9, i64 noundef 1)
  br label %10

10:                                               ; preds = %8, %2
  %11 = load i32, ptr %4, align 4, !tbaa !4
  %12 = trunc i32 %11 to i8
  %13 = load ptr, ptr %3, align 8, !tbaa !127
  %14 = getelementptr inbounds nuw %struct.strbuf, ptr %13, i32 0, i32 2
  %15 = load ptr, ptr %14, align 8, !tbaa !112
  %16 = load ptr, ptr %3, align 8, !tbaa !127
  %17 = getelementptr inbounds nuw %struct.strbuf, ptr %16, i32 0, i32 1
  %18 = load i64, ptr %17, align 8, !tbaa !114
  %19 = add i64 %18, 1
  store i64 %19, ptr %17, align 8, !tbaa !114
  %20 = getelementptr inbounds nuw i8, ptr %15, i64 %18
  store i8 %12, ptr %20, align 1, !tbaa !58
  %21 = load ptr, ptr %3, align 8, !tbaa !127
  %22 = getelementptr inbounds nuw %struct.strbuf, ptr %21, i32 0, i32 2
  %23 = load ptr, ptr %22, align 8, !tbaa !112
  %24 = load ptr, ptr %3, align 8, !tbaa !127
  %25 = getelementptr inbounds nuw %struct.strbuf, ptr %24, i32 0, i32 1
  %26 = load i64, ptr %25, align 8, !tbaa !114
  %27 = getelementptr inbounds nuw i8, ptr %23, i64 %26
  store i8 0, ptr %27, align 1, !tbaa !58
  ret void
}

; Function Attrs: inlinehint nounwind uwtable
define internal void @strbuf_addstr(ptr noundef %0, ptr noundef %1) #5 {
  %3 = alloca ptr, align 8
  %4 = alloca ptr, align 8
  store ptr %0, ptr %3, align 8, !tbaa !127
  store ptr %1, ptr %4, align 8, !tbaa !11
  %5 = load ptr, ptr %3, align 8, !tbaa !127
  %6 = load ptr, ptr %4, align 8, !tbaa !11
  %7 = load ptr, ptr %4, align 8, !tbaa !11
  %8 = call i64 @strlen(ptr noundef %7) #11
  call void @strbuf_add(ptr noundef %5, ptr noundef %6, i64 noundef %8)
  ret void
}

; Function Attrs: nounwind uwtable
define internal i32 @is_path_a_directory(ptr noundef %0) #0 {
  %2 = alloca ptr, align 8
  %3 = alloca %struct.stat, align 8
  store ptr %0, ptr %2, align 8, !tbaa !11
  call void @llvm.lifetime.start.p0(i64 144, ptr %3) #9
  %4 = load ptr, ptr %2, align 8, !tbaa !11
  %5 = call i32 @lstat64(ptr noundef %4, ptr noundef %3) #9
  %6 = icmp ne i32 %5, 0
  br i1 %6, label %12, label %7

7:                                                ; preds = %1
  %8 = getelementptr inbounds nuw %struct.stat, ptr %3, i32 0, i32 3
  %9 = load i32, ptr %8, align 8, !tbaa !217
  %10 = and i32 %9, 61440
  %11 = icmp eq i32 %10, 16384
  br label %12

12:                                               ; preds = %7, %1
  %13 = phi i1 [ false, %1 ], [ %11, %7 ]
  %14 = zext i1 %13 to i32
  call void @llvm.lifetime.end.p0(i64 144, ptr %3) #9
  ret i32 %14
}

; Function Attrs: nounwind uwtable
define internal void @add_diff_to_buf(ptr noundef %0, ptr noundef %1, ptr noundef %2) #0 {
  %4 = alloca ptr, align 8
  %5 = alloca ptr, align 8
  %6 = alloca ptr, align 8
  %7 = alloca i32, align 4
  store ptr %0, ptr %4, align 8, !tbaa !214
  store ptr %1, ptr %5, align 8, !tbaa !186
  store ptr %2, ptr %6, align 8, !tbaa !15
  call void @llvm.lifetime.start.p0(i64 4, ptr %7) #9
  store i32 0, ptr %7, align 4, !tbaa !4
  br label %8

8:                                                ; preds = %43, %3
  %9 = load i32, ptr %7, align 4, !tbaa !4
  %10 = load ptr, ptr %4, align 8, !tbaa !214
  %11 = getelementptr inbounds nuw %struct.diff_queue_struct, ptr %10, i32 0, i32 2
  %12 = load i32, ptr %11, align 4, !tbaa !165
  %13 = icmp slt i32 %9, %12
  br i1 %13, label %14, label %46

14:                                               ; preds = %8
  %15 = load ptr, ptr %4, align 8, !tbaa !214
  %16 = getelementptr inbounds nuw %struct.diff_queue_struct, ptr %15, i32 0, i32 0
  %17 = load ptr, ptr %16, align 8, !tbaa !168
  %18 = load i32, ptr %7, align 4, !tbaa !4
  %19 = sext i32 %18 to i64
  %20 = getelementptr inbounds ptr, ptr %17, i64 %19
  %21 = load ptr, ptr %20, align 8, !tbaa !169
  %22 = getelementptr inbounds nuw %struct.diff_filepair, ptr %21, i32 0, i32 0
  %23 = load ptr, ptr %22, align 8, !tbaa !180
  %24 = getelementptr inbounds nuw %struct.diff_filespec, ptr %23, i32 0, i32 1
  %25 = load ptr, ptr %24, align 8, !tbaa !175
  %26 = call i32 @is_path_a_directory(ptr noundef %25)
  %27 = icmp ne i32 %26, 0
  br i1 %27, label %28, label %29

28:                                               ; preds = %14
  br label %43

29:                                               ; preds = %14
  %30 = load ptr, ptr %6, align 8, !tbaa !15
  %31 = load ptr, ptr %4, align 8, !tbaa !214
  %32 = getelementptr inbounds nuw %struct.diff_queue_struct, ptr %31, i32 0, i32 0
  %33 = load ptr, ptr %32, align 8, !tbaa !168
  %34 = load i32, ptr %7, align 4, !tbaa !4
  %35 = sext i32 %34 to i64
  %36 = getelementptr inbounds ptr, ptr %33, i64 %35
  %37 = load ptr, ptr %36, align 8, !tbaa !169
  %38 = getelementptr inbounds nuw %struct.diff_filepair, ptr %37, i32 0, i32 0
  %39 = load ptr, ptr %38, align 8, !tbaa !180
  %40 = getelementptr inbounds nuw %struct.diff_filespec, ptr %39, i32 0, i32 1
  %41 = load ptr, ptr %40, align 8, !tbaa !175
  call void @strbuf_addstr(ptr noundef %30, ptr noundef %41)
  %42 = load ptr, ptr %6, align 8, !tbaa !15
  call void @strbuf_addch(ptr noundef %42, i32 noundef 0)
  br label %43

43:                                               ; preds = %29, %28
  %44 = load i32, ptr %7, align 4, !tbaa !4
  %45 = add nsw i32 %44, 1
  store i32 %45, ptr %7, align 4, !tbaa !4
  br label %8, !llvm.loop !216

46:                                               ; preds = %8
  call void @llvm.lifetime.end.p0(i64 4, ptr %7) #9
  ret void
}