; Function Attrs: nounwind uwtable
define internal void @add_diff_to_buf(ptr noundef readonly captures(none) %0, ptr readnone captures(none) %1, ptr noundef %2) #0 {
  %4 = alloca %struct.stat, align 8
  %5 = getelementptr inbounds nuw i8, ptr %0, i64 12
  %6 = load i32, ptr %5, align 4, !tbaa !146
  %7 = icmp sgt i32 %6, 0
  br i1 %7, label %.lr.ph, label %._crit_edge

.lr.ph:                                           ; preds = %3
  %8 = getelementptr inbounds nuw i8, ptr %4, i64 24
  %9 = getelementptr inbounds nuw i8, ptr %2, i64 8
  %10 = getelementptr inbounds nuw i8, ptr %2, i64 16
  br label %11

11:                                               ; preds = %.lr.ph, %38
  %indvars.iv = phi i64 [ 0, %.lr.ph ], [ %indvars.iv.next, %38 ]
  %12 = load ptr, ptr %0, align 8, !tbaa !149
  %13 = getelementptr inbounds nuw ptr, ptr %12, i64 %indvars.iv
  %14 = load ptr, ptr %13, align 8, !tbaa !150
  %15 = load ptr, ptr %14, align 8, !tbaa !161
  %16 = getelementptr inbounds nuw i8, ptr %15, i64 40
  %17 = load ptr, ptr %16, align 8, !tbaa !156
  call void @llvm.lifetime.start.p0(i64 144, ptr nonnull %4) #15
  %18 = call i32 @lstat64(ptr noundef readonly %17, ptr noundef nonnull %4) #15
  %.not.i = icmp ne i32 %18, 0
  %19 = load i32, ptr %8, align 8
  %20 = and i32 %19, 61440
  %21 = icmp ne i32 %20, 16384
  %.not10 = select i1 %.not.i, i1 true, i1 %21
  call void @llvm.lifetime.end.p0(i64 144, ptr nonnull %4) #15
  br i1 %.not10, label %22, label %38

22:                                               ; preds = %11
  %23 = load ptr, ptr %0, align 8, !tbaa !149
  %24 = getelementptr inbounds nuw ptr, ptr %23, i64 %indvars.iv
  %25 = load ptr, ptr %24, align 8, !tbaa !150
  %26 = load ptr, ptr %25, align 8, !tbaa !161
  %27 = getelementptr inbounds nuw i8, ptr %26, i64 40
  %28 = load ptr, ptr %27, align 8, !tbaa !156
  %29 = tail call i64 @strlen(ptr noundef nonnull dereferenceable(1) %28) #17
  tail call void @strbuf_add(ptr noundef %2, ptr noundef nonnull %28, i64 noundef %29) #15
  %30 = load i64, ptr %2, align 8, !tbaa !184
  %.not.i.i = icmp eq i64 %30, 0
  br i1 %.not.i.i, label %strbuf_avail.exit.thread.i, label %strbuf_avail.exit.i

strbuf_avail.exit.i:                              ; preds = %22
  %31 = load i64, ptr %9, align 8, !tbaa !132
  %.neg.i = add i64 %31, 1
  %.not.i8 = icmp eq i64 %30, %.neg.i
  br i1 %.not.i8, label %strbuf_avail.exit.thread.i, label %strbuf_addch.exit

strbuf_avail.exit.thread.i:                       ; preds = %strbuf_avail.exit.i, %22
  tail call void @strbuf_grow(ptr noundef nonnull %2, i64 noundef 1) #15
  %.pre.i = load i64, ptr %9, align 8, !tbaa !132
  %.pre7.i = add i64 %.pre.i, 1
  br label %strbuf_addch.exit

strbuf_addch.exit:                                ; preds = %strbuf_avail.exit.i, %strbuf_avail.exit.thread.i
  %.pre-phi.i = phi i64 [ %.pre7.i, %strbuf_avail.exit.thread.i ], [ %.neg.i, %strbuf_avail.exit.i ]
  %32 = phi i64 [ %.pre.i, %strbuf_avail.exit.thread.i ], [ %31, %strbuf_avail.exit.i ]
  %33 = load ptr, ptr %10, align 8, !tbaa !131
  store i64 %.pre-phi.i, ptr %9, align 8, !tbaa !132
  %34 = getelementptr inbounds nuw i8, ptr %33, i64 %32
  store i8 0, ptr %34, align 1, !tbaa !55
  %35 = load ptr, ptr %10, align 8, !tbaa !131
  %36 = load i64, ptr %9, align 8, !tbaa !132
  %37 = getelementptr inbounds nuw i8, ptr %35, i64 %36
  store i8 0, ptr %37, align 1, !tbaa !55
  br label %38

38:                                               ; preds = %11, %strbuf_addch.exit
  %indvars.iv.next = add nuw nsw i64 %indvars.iv, 1
  %39 = load i32, ptr %5, align 4, !tbaa !146
  %40 = sext i32 %39 to i64
  %41 = icmp slt i64 %indvars.iv.next, %40
  br i1 %41, label %11, label %._crit_edge, !llvm.loop !190

._crit_edge:                                      ; preds = %38, %3
  ret void
}